target datalayout = "e-m:e-p270:32:32-p271:32:32-p272:64:64-i64:64-i128:128-f80:128-n8:16:32:64-S128"
target triple = "x86_64-pc-linux-gnu"

@.str.62 = private unnamed_addr constant [19 x i8] c"Passphrase Testing\00", align 1

; Function Attrs: nounwind uwtable
define internal i32 @fake_pw_read_string(ptr noundef %0, ptr noundef %1) #0 {
  %3 = alloca i32, align 4
  %4 = alloca ptr, align 8
  %5 = alloca ptr, align 8
  %6 = alloca ptr, align 8
  %7 = alloca i32, align 4
  store ptr %0, ptr %4, align 8, !tbaa !38
  store ptr %1, ptr %5, align 8, !tbaa !40
  call void @llvm.lifetime.start.p0(i64 8, ptr %6) #3
  store ptr @.str.62, ptr %6, align 8, !tbaa !21
  %8 = load ptr, ptr %5, align 8, !tbaa !40
  %9 = call i32 @UI_get_string_type(ptr noundef %8)
  %10 = icmp eq i32 %9, 1
  br i1 %10, label %11, label %16

11:                                               ; preds = %2
  %12 = load ptr, ptr %4, align 8, !tbaa !38
  %13 = load ptr, ptr %5, align 8, !tbaa !40
  %14 = load ptr, ptr %6, align 8, !tbaa !21
  %15 = call i32 @UI_set_result(ptr noundef %12, ptr noundef %13, ptr noundef %14)
  store i32 1, ptr %3, align 4
  store i32 1, ptr %7, align 4
  br label %17

16:                                               ; preds = %2
  store i32 0, ptr %3, align 4
  store i32 1, ptr %7, align 4
  br label %17

17:                                               ; preds = %16, %11
  call void @llvm.lifetime.end.p0(i64 8, ptr %6) #3
  %18 = load i32, ptr %3, align 4
  ret i32 %18
}