; Function Attrs: nounwind uwtable
define internal range(i32 0, 2) i32 @fake_pw_read_string(ptr noundef %0, ptr noundef %1) #0 {
  %3 = tail call i32 @UI_get_string_type(ptr noundef %1) #3
  %4 = icmp eq i32 %3, 1
  br i1 %4, label %5, label %7

5:                                                ; preds = %2
  %6 = tail call i32 @UI_set_result(ptr noundef %0, ptr noundef %1, ptr noundef nonnull @.str.62) #3
  br label %7

7:                                                ; preds = %2, %5
  %.0 = phi i32 [ 1, %5 ], [ 0, %2 ]
  ret i32 %.0
}